; Function Attrs: null_pointer_is_valid sspstrong uwtable
define hidden void @proto_register_wccp() local_unnamed_addr #0 {
  %1 = tail call i32 @proto_register_protocol(ptr noundef nonnull @.str.338, ptr noundef nonnull @.str.339, ptr noundef nonnull @.str.340)
  store i32 %1, ptr @proto_wccp, align 4
  tail call void @proto_register_field_array(i32 noundef %1, ptr noundef nonnull @proto_register_wccp.hf, i32 noundef 165)
  tail call void @proto_register_subtree_array(ptr noundef nonnull @proto_register_wccp.ett, i32 noundef 48)
  %2 = load i32, ptr @proto_wccp, align 4
  %3 = tail call ptr @expert_register_protocol(i32 noundef %2)
  tail call void @expert_register_field_array(ptr noundef %3, ptr noundef nonnull @proto_register_wccp.ei, i32 noundef 29)
  %4 = load i32, ptr @proto_wccp, align 4
  %5 = tail call ptr @register_dissector(ptr noundef nonnull @.str.340, ptr noundef nonnull @dissect_wccp, i32 noundef %4)
  store ptr %5, ptr @wccp_handle, align 8
  ret void
}